; Function Attrs: mustprogress uwtable
define void @_ZNK6casadi17LinearInterpolant12get_jacobianERKNSt7__cxx1112basic_stringIcSt11char_traitsIcESaIcEEERKSt6vectorIS6_SaIS6_EESD_RKSt3mapIS6_NS_11GenericTypeESt4lessIS6_ESaISt4pairIS7_SF_EEE(ptr dead_on_unwind noalias nonnull writable sret(%"class.casadi::Function") align 8 %0, ptr nocapture nonnull readnone align 8 %1, ptr noundef nonnull align 8 dereferenceable(32) %2, ptr nocapture nonnull readnone align 8 %3, ptr nocapture nonnull readnone align 8 %4, ptr noundef nonnull align 8 dereferenceable(48) %5) unnamed_addr #4 align 2 personality ptr @__gxx_personality_v0 {
  tail call void @_ZN6casadi8FunctionC1Ev(ptr noundef nonnull align 8 dereferenceable(8) %0)
  %7 = invoke noalias noundef nonnull dereferenceable(1304) ptr @_Znwm(i64 noundef 1304) #21
          to label %8 unwind label %13

8:                                                ; preds = %6
  invoke void @_ZN6casadi16FunctionInternalC2ERKNSt7__cxx1112basic_stringIcSt11char_traitsIcESaIcEEE(ptr noundef nonnull align 8 dereferenceable(1304) %7, ptr noundef nonnull align 8 dereferenceable(32) %2)
          to label %9 unwind label %15

9:                                                ; preds = %8
  store ptr getelementptr inbounds ({ [112 x ptr] }, ptr @_ZTVN6casadi20LinearInterpolantJacE, i64 0, i32 0, i64 2), ptr %7, align 8
  invoke void @_ZN6casadi12SharedObject3ownEPNS_20SharedObjectInternalE(ptr noundef nonnull align 8 dereferenceable(8) %0, ptr noundef nonnull %7)
          to label %10 unwind label %13

10:                                               ; preds = %9
  %11 = invoke noundef ptr @_ZNK6casadi8FunctionptEv(ptr noundef nonnull align 8 dereferenceable(8) %0)
          to label %12 unwind label %13

12:                                               ; preds = %10
  invoke void @_ZN6casadi13ProtoFunction9constructERKSt3mapINSt7__cxx1112basic_stringIcSt11char_traitsIcESaIcEEENS_11GenericTypeESt4lessIS7_ESaISt4pairIKS7_S8_EEE(ptr noundef nonnull align 8 dereferenceable(168) %11, ptr noundef nonnull align 8 dereferenceable(48) %5)
          to label %17 unwind label %13

13:                                               ; preds = %12, %10, %9, %6
  %14 = landingpad { ptr, i32 }
          cleanup
  br label %18

15:                                               ; preds = %8
  %16 = landingpad { ptr, i32 }
          cleanup
  tail call void @_ZdlPv(ptr noundef nonnull %7) #22
  br label %18

17:                                               ; preds = %12
  ret void

18:                                               ; preds = %15, %13
  %.pn = phi { ptr, i32 } [ %14, %13 ], [ %16, %15 ]
  tail call void @_ZN6casadi8FunctionD1Ev(ptr noundef nonnull align 8 dereferenceable(8) %0) #20
  resume { ptr, i32 } %.pn
}